target datalayout = "e-m:e-p270:32:32-p271:32:32-p272:64:64-i64:64-i128:128-f80:128-n8:16:32:64-S128"
target triple = "x86_64-pc-linux-gnu"

%struct.filelist = type { i8, i8, ptr }
%struct.file = type { i32, i32, ptr, ptr }

; Function Attrs: nounwind uwtable
define void @files_releaselist(ptr noundef %0) #0 {
  %2 = alloca ptr, align 8
  %3 = alloca i32, align 4
  %4 = alloca i32, align 4
  store ptr %0, ptr %2, align 8
  %5 = load ptr, ptr %2, align 8
  %6 = getelementptr inbounds %struct.filelist, ptr %5, i32 0, i32 1
  %7 = load i8, ptr %6, align 1
  %8 = zext i8 %7 to i32
  %9 = sub nsw i32 %8, 1
  store i32 %9, ptr %3, align 4
  br label %10

10:                                               ; preds = %40, %1
  %11 = load i32, ptr %3, align 4
  %12 = icmp sge i32 %11, 0
  br i1 %12, label %13, label %43

13:                                               ; preds = %10
  store i32 7, ptr %4, align 4
  br label %14

14:                                               ; preds = %29, %13
  %15 = load i32, ptr %4, align 4
  %16 = icmp sge i32 %15, 0
  br i1 %16, label %17, label %32

17:                                               ; preds = %14
  %18 = load ptr, ptr %2, align 8
  %19 = getelementptr inbounds %struct.filelist, ptr %18, i32 0, i32 2
  %20 = load ptr, ptr %19, align 8
  %21 = load i32, ptr %3, align 4
  %22 = sext i32 %21 to i64
  %23 = getelementptr inbounds ptr, ptr %20, i64 %22
  %24 = load ptr, ptr %23, align 8
  %25 = load i32, ptr %4, align 4
  %26 = sext i32 %25 to i64
  %27 = getelementptr inbounds %struct.file, ptr %24, i64 %26
  %28 = call i32 @file_close(ptr noundef %27)
  br label %29

29:                                               ; preds = %17
  %30 = load i32, ptr %4, align 4
  %31 = add nsw i32 %30, -1
  store i32 %31, ptr %4, align 4
  br label %14, !llvm.loop !6

32:                                               ; preds = %14
  %33 = load ptr, ptr %2, align 8
  %34 = getelementptr inbounds %struct.filelist, ptr %33, i32 0, i32 2
  %35 = load ptr, ptr %34, align 8
  %36 = load i32, ptr %3, align 4
  %37 = sext i32 %36 to i64
  %38 = getelementptr inbounds ptr, ptr %35, i64 %37
  %39 = load ptr, ptr %38, align 8
  call void @free(ptr noundef %39)
  br label %40

40:                                               ; preds = %32
  %41 = load i32, ptr %3, align 4
  %42 = add nsw i32 %41, -1
  store i32 %42, ptr %3, align 4
  br label %10, !llvm.loop !8

43:                                               ; preds = %10
  %44 = load ptr, ptr %2, align 8
  %45 = getelementptr inbounds %struct.filelist, ptr %44, i32 0, i32 2
  %46 = load ptr, ptr %45, align 8
  call void @free(ptr noundef %46)
  ret void
}