; Function Attrs: nounwind uwtable
define void @files_releaselist(ptr noundef readonly captures(none) %0) local_unnamed_addr #1 {
  %2 = getelementptr inbounds nuw i8, ptr %0, i64 1
  %3 = load i8, ptr %2, align 1
  %.not = icmp eq i8 %3, 0
  br i1 %.not, label %._crit_edge, label %.preheader.lr.ph

.preheader.lr.ph:                                 ; preds = %1
  %4 = getelementptr inbounds nuw i8, ptr %0, i64 8
  %5 = zext i8 %3 to i64
  br label %.preheader

.preheader:                                       ; preds = %.preheader.lr.ph, %12
  %indvars.iv15 = phi i64 [ %5, %.preheader.lr.ph ], [ %indvars.iv.next16, %12 ]
  %indvars.iv.next16 = add nsw i64 %indvars.iv15, -1
  br label %6

6:                                                ; preds = %.preheader, %6
  %indvars.iv = phi i64 [ 7, %.preheader ], [ %indvars.iv.next, %6 ]
  %7 = load ptr, ptr %4, align 8
  %8 = getelementptr inbounds nuw ptr, ptr %7, i64 %indvars.iv.next16
  %9 = load ptr, ptr %8, align 8
  %10 = getelementptr inbounds nuw %struct.file, ptr %9, i64 %indvars.iv
  %11 = tail call i32 @file_close(ptr noundef %10) #10
  %indvars.iv.next = add nsw i64 %indvars.iv, -1
  %.not18 = icmp eq i64 %indvars.iv, 0
  br i1 %.not18, label %12, label %6, !llvm.loop !6

12:                                               ; preds = %6
  %13 = load ptr, ptr %4, align 8
  %14 = getelementptr inbounds nuw ptr, ptr %13, i64 %indvars.iv.next16
  %15 = load ptr, ptr %14, align 8
  tail call void @free(ptr noundef %15)
  %16 = icmp sgt i64 %indvars.iv15, 1
  br i1 %16, label %.preheader, label %._crit_edge, !llvm.loop !8

._crit_edge:                                      ; preds = %12, %1
  %17 = getelementptr inbounds nuw i8, ptr %0, i64 8
  %18 = load ptr, ptr %17, align 8
  tail call void @free(ptr noundef %18)
  ret void
}